target datalayout = "e-m:e-p270:32:32-p271:32:32-p272:64:64-i64:64-i128:128-f80:128-n8:16:32:64-S128"
target triple = "x86_64-pc-linux-gnu"

%struct.bignum_st = type { ptr, i32, i32, i32, i32 }
%struct.ec_point_st = type { ptr, %struct.bignum_st, %struct.bignum_st, %struct.bignum_st }

; Function Attrs: nounwind uwtable
define hidden i32 @ec_GFp_simple_point_init(ptr noundef %0) #0 {
  %2 = alloca ptr, align 8
  store ptr %0, ptr %2, align 8, !tbaa !28
  %3 = load ptr, ptr %2, align 8, !tbaa !28
  %4 = getelementptr inbounds nuw %struct.ec_point_st, ptr %3, i32 0, i32 1
  call void @BN_init(ptr noundef %4)
  %5 = load ptr, ptr %2, align 8, !tbaa !28
  %6 = getelementptr inbounds nuw %struct.ec_point_st, ptr %5, i32 0, i32 2
  call void @BN_init(ptr noundef %6)
  %7 = load ptr, ptr %2, align 8, !tbaa !28
  %8 = getelementptr inbounds nuw %struct.ec_point_st, ptr %7, i32 0, i32 3
  call void @BN_init(ptr noundef %8)
  ret i32 1
}