; Function Attrs: nounwind uwtable
define hidden noundef i32 @ec_GFp_simple_point_init(ptr noundef %0) local_unnamed_addr #0 {
  %2 = getelementptr inbounds nuw i8, ptr %0, i64 8
  tail call void @BN_init(ptr noundef nonnull %2) #5
  %3 = getelementptr inbounds nuw i8, ptr %0, i64 32
  tail call void @BN_init(ptr noundef nonnull %3) #5
  %4 = getelementptr inbounds nuw i8, ptr %0, i64 56
  tail call void @BN_init(ptr noundef nonnull %4) #5
  ret i32 1
}